; Function Attrs: nounwind uwtable
define internal void @spl_filesystem_tree_it_move_forward(ptr noundef %0) #0 {
  %2 = getelementptr i8, ptr %0, i64 104
  %.val = load ptr, ptr %2, align 8
  %3 = getelementptr inbounds i8, ptr %.val, i64 48
  %4 = load i64, ptr %3, align 8
  %.fr26 = freeze i64 %4
  %5 = and i64 %.fr26, 4096
  %.not = icmp eq i64 %5, 0
  %6 = getelementptr inbounds i8, ptr %.val, i64 88
  %7 = load i32, ptr %6, align 8
  %8 = add nsw i32 %7, 1
  store i32 %8, ptr %6, align 8
  %9 = getelementptr inbounds i8, ptr %.val, i64 32
  %10 = getelementptr inbounds i8, ptr %.val, i64 72
  %11 = getelementptr inbounds i8, ptr %.val, i64 120
  br i1 %.not, label %spl_filesystem_is_dot.exit.us, label %spl_filesystem_is_dot.exit

spl_filesystem_is_dot.exit.us:                    ; preds = %1
  %12 = load ptr, ptr %9, align 8
  %.not.i.us = icmp eq ptr %12, null
  br i1 %.not.i.us, label %27, label %13

13:                                               ; preds = %spl_filesystem_is_dot.exit.us
  %14 = getelementptr inbounds i8, ptr %12, i64 4
  %15 = load i32, ptr %14, align 4
  %16 = and i32 %15, 64
  %.not18.i.us = icmp eq i32 %16, 0
  br i1 %.not18.i.us, label %17, label %26

17:                                               ; preds = %13
  %18 = load i32, ptr %12, align 4
  %19 = icmp ne i32 %18, 0
  tail call void @llvm.assume(i1 %19)
  %20 = add i32 %18, -1
  store i32 %20, ptr %12, align 4
  %21 = icmp eq i32 %20, 0
  br i1 %21, label %22, label %26

22:                                               ; preds = %17
  %23 = and i32 %15, 128
  %.not19.i.us = icmp eq i32 %23, 0
  br i1 %.not19.i.us, label %25, label %24

24:                                               ; preds = %22
  tail call void @free(ptr noundef nonnull %12) #18
  br label %26

25:                                               ; preds = %22
  tail call void @_efree(ptr noundef nonnull %12) #18
  br label %26

26:                                               ; preds = %25, %24, %17, %13
  store ptr null, ptr %9, align 8
  br label %27

27:                                               ; preds = %26, %spl_filesystem_is_dot.exit.us
  %28 = load ptr, ptr %10, align 8
  %.not20.i.us = icmp eq ptr %28, null
  br i1 %.not20.i.us, label %31, label %29

29:                                               ; preds = %27
  %30 = tail call ptr @_php_stream_readdir(ptr noundef nonnull %28, ptr noundef nonnull %11) #18
  %.not21.i.us = icmp eq ptr %30, null
  br i1 %.not21.i.us, label %31, label %.critedge

31:                                               ; preds = %29, %27
  store i8 0, ptr %11, align 8
  br label %.critedge

spl_filesystem_is_dot.exit:                       ; preds = %1, %spl_filesystem_is_dot.exit.backedge
  %32 = load ptr, ptr %9, align 8
  %.not.i = icmp eq ptr %32, null
  br i1 %.not.i, label %47, label %33

33:                                               ; preds = %spl_filesystem_is_dot.exit
  %34 = getelementptr inbounds i8, ptr %32, i64 4
  %35 = load i32, ptr %34, align 4
  %36 = and i32 %35, 64
  %.not18.i = icmp eq i32 %36, 0
  br i1 %.not18.i, label %37, label %46

37:                                               ; preds = %33
  %38 = load i32, ptr %32, align 4
  %39 = icmp ne i32 %38, 0
  tail call void @llvm.assume(i1 %39)
  %40 = add i32 %38, -1
  store i32 %40, ptr %32, align 4
  %41 = icmp eq i32 %40, 0
  br i1 %41, label %42, label %46

42:                                               ; preds = %37
  %43 = and i32 %35, 128
  %.not19.i = icmp eq i32 %43, 0
  br i1 %.not19.i, label %45, label %44

44:                                               ; preds = %42
  tail call void @free(ptr noundef nonnull %32) #18
  br label %46

45:                                               ; preds = %42
  tail call void @_efree(ptr noundef nonnull %32) #18
  br label %46

46:                                               ; preds = %45, %44, %37, %33
  store ptr null, ptr %9, align 8
  br label %47

47:                                               ; preds = %46, %spl_filesystem_is_dot.exit
  %48 = load ptr, ptr %10, align 8
  %.not20.i = icmp eq ptr %48, null
  br i1 %.not20.i, label %51, label %49

49:                                               ; preds = %47
  %50 = tail call ptr @_php_stream_readdir(ptr noundef nonnull %48, ptr noundef nonnull %11) #18
  %.not21.i = icmp eq ptr %50, null
  br i1 %.not21.i, label %51, label %spl_filesystem_dir_read.exit

51:                                               ; preds = %49, %47
  store i8 0, ptr %11, align 8
  br label %spl_filesystem_dir_read.exit

spl_filesystem_dir_read.exit:                     ; preds = %49, %51
  %52 = tail call i32 @strcmp(ptr noundef nonnull dereferenceable(1) %11, ptr noundef nonnull dereferenceable(2) @.str.39) #20
  %.not.i25 = icmp eq i32 %52, 0
  br i1 %.not.i25, label %spl_filesystem_is_dot.exit.backedge, label %53

53:                                               ; preds = %spl_filesystem_dir_read.exit
  %54 = tail call i32 @strcmp(ptr noundef nonnull dereferenceable(1) %11, ptr noundef nonnull dereferenceable(3) @.str.40) #20
  %.not2.i = icmp eq i32 %54, 0
  br i1 %.not2.i, label %spl_filesystem_is_dot.exit.backedge, label %.critedge

spl_filesystem_is_dot.exit.backedge:              ; preds = %53, %spl_filesystem_dir_read.exit
  br label %spl_filesystem_is_dot.exit

.critedge:                                        ; preds = %53, %31, %29
  %55 = load ptr, ptr %9, align 8
  %.not22 = icmp eq ptr %55, null
  br i1 %.not22, label %70, label %56

56:                                               ; preds = %.critedge
  %57 = getelementptr inbounds i8, ptr %55, i64 4
  %58 = load i32, ptr %57, align 4
  %59 = and i32 %58, 64
  %.not23 = icmp eq i32 %59, 0
  br i1 %.not23, label %60, label %69

60:                                               ; preds = %56
  %61 = load i32, ptr %55, align 4
  %62 = icmp ne i32 %61, 0
  tail call void @llvm.assume(i1 %62)
  %63 = add i32 %61, -1
  store i32 %63, ptr %55, align 4
  %64 = icmp eq i32 %63, 0
  br i1 %64, label %65, label %69

65:                                               ; preds = %60
  %66 = and i32 %58, 128
  %.not24 = icmp eq i32 %66, 0
  br i1 %.not24, label %68, label %67

67:                                               ; preds = %65
  tail call void @free(ptr noundef nonnull %55) #18
  br label %69

68:                                               ; preds = %65
  tail call void @_efree(ptr noundef nonnull %55) #18
  br label %69

69:                                               ; preds = %60, %68, %67, %56
  store ptr null, ptr %9, align 8
  br label %70

70:                                               ; preds = %69, %.critedge
  %71 = getelementptr inbounds i8, ptr %0, i64 96
  %72 = load i8, ptr %71, align 8
  %73 = icmp eq i8 %72, 0
  br i1 %73, label %76, label %74

74:                                               ; preds = %70
  %75 = getelementptr inbounds i8, ptr %0, i64 88
  tail call void @zval_ptr_dtor(ptr noundef nonnull %75) #18
  store i32 0, ptr %71, align 8
  br label %76

76:                                               ; preds = %74, %70
  ret void
}